
foo:     file format elf64-x86-64


Disassembly of section .init:

0000000000001000 <_init>:
    1000:	f3 0f 1e fa          	endbr64 
    1004:	48 83 ec 08          	sub    $0x8,%rsp
    1008:	48 8b 05 d9 2f 00 00 	mov    0x2fd9(%rip),%rax        # 3fe8 <__gmon_start__>
    100f:	48 85 c0             	test   %rax,%rax
    1012:	74 02                	je     1016 <_init+0x16>
    1014:	ff d0                	callq  *%rax
    1016:	48 83 c4 08          	add    $0x8,%rsp
    101a:	c3                   	retq   

Disassembly of section .plt:

0000000000001020 <.plt>:
    1020:	ff 35 9a 2f 00 00    	pushq  0x2f9a(%rip)        # 3fc0 <_GLOBAL_OFFSET_TABLE_+0x8>
    1026:	f2 ff 25 9b 2f 00 00 	bnd jmpq *0x2f9b(%rip)        # 3fc8 <_GLOBAL_OFFSET_TABLE_+0x10>
    102d:	0f 1f 00             	nopl   (%rax)
    1030:	f3 0f 1e fa          	endbr64 
    1034:	68 00 00 00 00       	pushq  $0x0
    1039:	f2 e9 e1 ff ff ff    	bnd jmpq 1020 <.plt>
    103f:	90                   	nop

Disassembly of section .plt.got:

0000000000001040 <__cxa_finalize@plt>:
    1040:	f3 0f 1e fa          	endbr64 
    1044:	f2 ff 25 ad 2f 00 00 	bnd jmpq *0x2fad(%rip)        # 3ff8 <__cxa_finalize@GLIBC_2.2.5>
    104b:	0f 1f 44 00 00       	nopl   0x0(%rax,%rax,1)

Disassembly of section .plt.sec:

0000000000001050 <printf@plt>:
    1050:	f3 0f 1e fa          	endbr64 
    1054:	f2 ff 25 75 2f 00 00 	bnd jmpq *0x2f75(%rip)        # 3fd0 <printf@GLIBC_2.2.5>
    105b:	0f 1f 44 00 00       	nopl   0x0(%rax,%rax,1)

Disassembly of section .text:

0000000000001060 <_start>:
    1060:	f3 0f 1e fa          	endbr64 
    1064:	31 ed                	xor    %ebp,%ebp
    1066:	49 89 d1             	mov    %rdx,%r9
    1069:	5e                   	pop    %rsi
    106a:	48 89 e2             	mov    %rsp,%rdx
    106d:	48 83 e4 f0          	and    $0xfffffffffffffff0,%rsp
    1071:	50                   	push   %rax
    1072:	54                   	push   %rsp
    1073:	4c 8d 05 86 02 00 00 	lea    0x286(%rip),%r8        # 1300 <__libc_csu_fini>
    107a:	48 8d 0d 0f 02 00 00 	lea    0x20f(%rip),%rcx        # 1290 <__libc_csu_init>
    1081:	48 8d 3d 8c 01 00 00 	lea    0x18c(%rip),%rdi        # 1214 <main>
    1088:	ff 15 52 2f 00 00    	callq  *0x2f52(%rip)        # 3fe0 <__libc_start_main@GLIBC_2.2.5>
    108e:	f4                   	hlt    
    108f:	90                   	nop

0000000000001090 <deregister_tm_clones>:
    1090:	48 8d 3d 79 2f 00 00 	lea    0x2f79(%rip),%rdi        # 4010 <__TMC_END__>
    1097:	48 8d 05 72 2f 00 00 	lea    0x2f72(%rip),%rax        # 4010 <__TMC_END__>
    109e:	48 39 f8             	cmp    %rdi,%rax
    10a1:	74 15                	je     10b8 <deregister_tm_clones+0x28>
    10a3:	48 8b 05 2e 2f 00 00 	mov    0x2f2e(%rip),%rax        # 3fd8 <_ITM_deregisterTMCloneTable>
    10aa:	48 85 c0             	test   %rax,%rax
    10ad:	74 09                	je     10b8 <deregister_tm_clones+0x28>
    10af:	ff e0                	jmpq   *%rax
    10b1:	0f 1f 80 00 00 00 00 	nopl   0x0(%rax)
    10b8:	c3                   	retq   
    10b9:	0f 1f 80 00 00 00 00 	nopl   0x0(%rax)

00000000000010c0 <register_tm_clones>:
    10c0:	48 8d 3d 49 2f 00 00 	lea    0x2f49(%rip),%rdi        # 4010 <__TMC_END__>
    10c7:	48 8d 35 42 2f 00 00 	lea    0x2f42(%rip),%rsi        # 4010 <__TMC_END__>
    10ce:	48 29 fe             	sub    %rdi,%rsi
    10d1:	48 89 f0             	mov    %rsi,%rax
    10d4:	48 c1 ee 3f          	shr    $0x3f,%rsi
    10d8:	48 c1 f8 03          	sar    $0x3,%rax
    10dc:	48 01 c6             	add    %rax,%rsi
    10df:	48 d1 fe             	sar    %rsi
    10e2:	74 14                	je     10f8 <register_tm_clones+0x38>
    10e4:	48 8b 05 05 2f 00 00 	mov    0x2f05(%rip),%rax        # 3ff0 <_ITM_registerTMCloneTable>
    10eb:	48 85 c0             	test   %rax,%rax
    10ee:	74 08                	je     10f8 <register_tm_clones+0x38>
    10f0:	ff e0                	jmpq   *%rax
    10f2:	66 0f 1f 44 00 00    	nopw   0x0(%rax,%rax,1)
    10f8:	c3                   	retq   
    10f9:	0f 1f 80 00 00 00 00 	nopl   0x0(%rax)

0000000000001100 <__do_global_dtors_aux>:
    1100:	f3 0f 1e fa          	endbr64 
    1104:	80 3d 05 2f 00 00 00 	cmpb   $0x0,0x2f05(%rip)        # 4010 <__TMC_END__>
    110b:	75 2b                	jne    1138 <__do_global_dtors_aux+0x38>
    110d:	55                   	push   %rbp
    110e:	48 83 3d e2 2e 00 00 	cmpq   $0x0,0x2ee2(%rip)        # 3ff8 <__cxa_finalize@GLIBC_2.2.5>
    1115:	00 
    1116:	48 89 e5             	mov    %rsp,%rbp
    1119:	74 0c                	je     1127 <__do_global_dtors_aux+0x27>
    111b:	48 8b 3d e6 2e 00 00 	mov    0x2ee6(%rip),%rdi        # 4008 <__dso_handle>
    1122:	e8 19 ff ff ff       	callq  1040 <__cxa_finalize@plt>
    1127:	e8 64 ff ff ff       	callq  1090 <deregister_tm_clones>
    112c:	c6 05 dd 2e 00 00 01 	movb   $0x1,0x2edd(%rip)        # 4010 <__TMC_END__>
    1133:	5d                   	pop    %rbp
    1134:	c3                   	retq   
    1135:	0f 1f 00             	nopl   (%rax)
    1138:	c3                   	retq   
    1139:	0f 1f 80 00 00 00 00 	nopl   0x0(%rax)

0000000000001140 <frame_dummy>:
    1140:	f3 0f 1e fa          	endbr64 
    1144:	e9 77 ff ff ff       	jmpq   10c0 <register_tm_clones>

0000000000001149 <foo_ifelse>:
    1149:	f3 0f 1e fa          	endbr64 
    114d:	55                   	push   %rbp
    114e:	48 89 e5             	mov    %rsp,%rbp
    1151:	89 f8                	mov    %edi,%eax
    1153:	88 45 fc             	mov    %al,-0x4(%rbp)
    1156:	80 7d fc 30          	cmpb   $0x30,-0x4(%rbp)
    115a:	74 06                	je     1162 <foo_ifelse+0x19>
    115c:	80 7d fc 31          	cmpb   $0x31,-0x4(%rbp)
    1160:	75 0c                	jne    116e <foo_ifelse+0x25>
    1162:	0f b6 45 fc          	movzbl -0x4(%rbp),%eax
    1166:	83 c0 01             	add    $0x1,%eax
    1169:	88 45 fc             	mov    %al,-0x4(%rbp)
    116c:	eb 3a                	jmp    11a8 <foo_ifelse+0x5f>
    116e:	80 7d fc 61          	cmpb   $0x61,-0x4(%rbp)
    1172:	74 06                	je     117a <foo_ifelse+0x31>
    1174:	80 7d fc 62          	cmpb   $0x62,-0x4(%rbp)
    1178:	75 0c                	jne    1186 <foo_ifelse+0x3d>
    117a:	0f b6 45 fc          	movzbl -0x4(%rbp),%eax
    117e:	83 c0 02             	add    $0x2,%eax
    1181:	88 45 fc             	mov    %al,-0x4(%rbp)
    1184:	eb 22                	jmp    11a8 <foo_ifelse+0x5f>
    1186:	80 7d fc 41          	cmpb   $0x41,-0x4(%rbp)
    118a:	74 06                	je     1192 <foo_ifelse+0x49>
    118c:	80 7d fc 42          	cmpb   $0x42,-0x4(%rbp)
    1190:	75 0c                	jne    119e <foo_ifelse+0x55>
    1192:	0f b6 45 fc          	movzbl -0x4(%rbp),%eax
    1196:	83 c0 03             	add    $0x3,%eax
    1199:	88 45 fc             	mov    %al,-0x4(%rbp)
    119c:	eb 0a                	jmp    11a8 <foo_ifelse+0x5f>
    119e:	0f b6 45 fc          	movzbl -0x4(%rbp),%eax
    11a2:	83 c0 04             	add    $0x4,%eax
    11a5:	88 45 fc             	mov    %al,-0x4(%rbp)
    11a8:	0f be 45 fc          	movsbl -0x4(%rbp),%eax
    11ac:	5d                   	pop    %rbp
    11ad:	c3                   	retq   

00000000000011ae <foo_switch>:
    11ae:	f3 0f 1e fa          	endbr64 
    11b2:	55                   	push   %rbp
    11b3:	48 89 e5             	mov    %rsp,%rbp
    11b6:	89 f8                	mov    %edi,%eax
    11b8:	88 45 fc             	mov    %al,-0x4(%rbp)
    11bb:	0f be 45 fc          	movsbl -0x4(%rbp),%eax
    11bf:	83 f8 62             	cmp    $0x62,%eax
    11c2:	7f 3f                	jg     1203 <foo_switch+0x55>
    11c4:	83 f8 61             	cmp    $0x61,%eax
    11c7:	7d 22                	jge    11eb <foo_switch+0x3d>
    11c9:	83 f8 31             	cmp    $0x31,%eax
    11cc:	7f 07                	jg     11d5 <foo_switch+0x27>
    11ce:	83 f8 30             	cmp    $0x30,%eax
    11d1:	7d 0c                	jge    11df <foo_switch+0x31>
    11d3:	eb 2e                	jmp    1203 <foo_switch+0x55>
    11d5:	83 e8 41             	sub    $0x41,%eax
    11d8:	83 f8 01             	cmp    $0x1,%eax
    11db:	77 26                	ja     1203 <foo_switch+0x55>
    11dd:	eb 18                	jmp    11f7 <foo_switch+0x49>
    11df:	0f b6 45 fc          	movzbl -0x4(%rbp),%eax
    11e3:	83 c0 01             	add    $0x1,%eax
    11e6:	88 45 fc             	mov    %al,-0x4(%rbp)
    11e9:	eb 23                	jmp    120e <foo_switch+0x60>
    11eb:	0f b6 45 fc          	movzbl -0x4(%rbp),%eax
    11ef:	83 c0 02             	add    $0x2,%eax
    11f2:	88 45 fc             	mov    %al,-0x4(%rbp)
    11f5:	eb 17                	jmp    120e <foo_switch+0x60>
    11f7:	0f b6 45 fc          	movzbl -0x4(%rbp),%eax
    11fb:	83 c0 03             	add    $0x3,%eax
    11fe:	88 45 fc             	mov    %al,-0x4(%rbp)
    1201:	eb 0b                	jmp    120e <foo_switch+0x60>
    1203:	0f b6 45 fc          	movzbl -0x4(%rbp),%eax
    1207:	83 c0 04             	add    $0x4,%eax
    120a:	88 45 fc             	mov    %al,-0x4(%rbp)
    120d:	90                   	nop
    120e:	0f be 45 fc          	movsbl -0x4(%rbp),%eax
    1212:	5d                   	pop    %rbp
    1213:	c3                   	retq   

0000000000001214 <main>:
    1214:	f3 0f 1e fa          	endbr64 
    1218:	55                   	push   %rbp
    1219:	48 89 e5             	mov    %rsp,%rbp
    121c:	48 83 ec 20          	sub    $0x20,%rsp
    1220:	89 7d ec             	mov    %edi,-0x14(%rbp)
    1223:	48 89 75 e0          	mov    %rsi,-0x20(%rbp)
    1227:	bf 30 00 00 00       	mov    $0x30,%edi
    122c:	e8 18 ff ff ff       	callq  1149 <foo_ifelse>
    1231:	89 45 f0             	mov    %eax,-0x10(%rbp)
    1234:	bf 31 00 00 00       	mov    $0x31,%edi
    1239:	e8 0b ff ff ff       	callq  1149 <foo_ifelse>
    123e:	89 45 f4             	mov    %eax,-0xc(%rbp)
    1241:	bf 61 00 00 00       	mov    $0x61,%edi
    1246:	e8 63 ff ff ff       	callq  11ae <foo_switch>
    124b:	89 45 f8             	mov    %eax,-0x8(%rbp)
    124e:	bf 62 00 00 00       	mov    $0x62,%edi
    1253:	e8 56 ff ff ff       	callq  11ae <foo_switch>
    1258:	89 45 fc             	mov    %eax,-0x4(%rbp)
    125b:	8b 75 fc             	mov    -0x4(%rbp),%esi
    125e:	8b 4d f8             	mov    -0x8(%rbp),%ecx
    1261:	8b 55 f4             	mov    -0xc(%rbp),%edx
    1264:	8b 45 f0             	mov    -0x10(%rbp),%eax
    1267:	41 89 f0             	mov    %esi,%r8d
    126a:	89 c6                	mov    %eax,%esi
    126c:	48 8d 3d 91 0d 00 00 	lea    0xd91(%rip),%rdi        # 2004 <_IO_stdin_used+0x4>
    1273:	b8 00 00 00 00       	mov    $0x0,%eax
    1278:	e8 d3 fd ff ff       	callq  1050 <printf@plt>
    127d:	b8 00 00 00 00       	mov    $0x0,%eax
    1282:	c9                   	leaveq 
    1283:	c3                   	retq   
    1284:	66 2e 0f 1f 84 00 00 	nopw   %cs:0x0(%rax,%rax,1)
    128b:	00 00 00 
    128e:	66 90                	xchg   %ax,%ax

0000000000001290 <__libc_csu_init>:
    1290:	f3 0f 1e fa          	endbr64 
    1294:	41 57                	push   %r15
    1296:	4c 8d 3d 1b 2b 00 00 	lea    0x2b1b(%rip),%r15        # 3db8 <__frame_dummy_init_array_entry>
    129d:	41 56                	push   %r14
    129f:	49 89 d6             	mov    %rdx,%r14
    12a2:	41 55                	push   %r13
    12a4:	49 89 f5             	mov    %rsi,%r13
    12a7:	41 54                	push   %r12
    12a9:	41 89 fc             	mov    %edi,%r12d
    12ac:	55                   	push   %rbp
    12ad:	48 8d 2d 0c 2b 00 00 	lea    0x2b0c(%rip),%rbp        # 3dc0 <__do_global_dtors_aux_fini_array_entry>
    12b4:	53                   	push   %rbx
    12b5:	4c 29 fd             	sub    %r15,%rbp
    12b8:	48 83 ec 08          	sub    $0x8,%rsp
    12bc:	e8 3f fd ff ff       	callq  1000 <_init>
    12c1:	48 c1 fd 03          	sar    $0x3,%rbp
    12c5:	74 1f                	je     12e6 <__libc_csu_init+0x56>
    12c7:	31 db                	xor    %ebx,%ebx
    12c9:	0f 1f 80 00 00 00 00 	nopl   0x0(%rax)
    12d0:	4c 89 f2             	mov    %r14,%rdx
    12d3:	4c 89 ee             	mov    %r13,%rsi
    12d6:	44 89 e7             	mov    %r12d,%edi
    12d9:	41 ff 14 df          	callq  *(%r15,%rbx,8)
    12dd:	48 83 c3 01          	add    $0x1,%rbx
    12e1:	48 39 dd             	cmp    %rbx,%rbp
    12e4:	75 ea                	jne    12d0 <__libc_csu_init+0x40>
    12e6:	48 83 c4 08          	add    $0x8,%rsp
    12ea:	5b                   	pop    %rbx
    12eb:	5d                   	pop    %rbp
    12ec:	41 5c                	pop    %r12
    12ee:	41 5d                	pop    %r13
    12f0:	41 5e                	pop    %r14
    12f2:	41 5f                	pop    %r15
    12f4:	c3                   	retq   
    12f5:	66 66 2e 0f 1f 84 00 	data16 nopw %cs:0x0(%rax,%rax,1)
    12fc:	00 00 00 00 

0000000000001300 <__libc_csu_fini>:
    1300:	f3 0f 1e fa          	endbr64 
    1304:	c3                   	retq   

Disassembly of section .fini:

0000000000001308 <_fini>:
    1308:	f3 0f 1e fa          	endbr64 
    130c:	48 83 ec 08          	sub    $0x8,%rsp
    1310:	48 83 c4 08          	add    $0x8,%rsp
    1314:	c3                   	retq   
